; ModuleID = '57/2725.c'
source_filename = "57/2725.c"
target datalayout = "e-m:e-p270:32:32-p271:32:32-p272:64:64-i64:64-f80:128-n8:16:32:64-S128"
target triple = "x86_64-pc-linux-gnu"

%struct.anon = type { [50 x i8], [50 x i8], i32 }

@.str = private unnamed_addr constant [4 x i8] c"%d\0A\00", align 1
@.str.1 = private unnamed_addr constant [3 x i8] c"%s\00", align 1
@.str.2 = private unnamed_addr constant [4 x i8] c"%s\0A\00", align 1

; Function Attrs: noinline nounwind uwtable
define dso_local void @main() #0 {
  %1 = alloca i32, align 4
  %2 = alloca i32, align 4
  %3 = alloca i32, align 4
  %4 = alloca i32, align 4
  %5 = alloca [100 x %struct.anon], align 16
  %6 = call i32 (i8*, ...) @__isoc99_scanf(i8* getelementptr inbounds ([4 x i8], [4 x i8]* @.str, i64 0, i64 0), i32* %1)
  store i32 0, i32* %2, align 4
  br label %7

7:                                                ; preds = %140, %0
  %8 = load i32, i32* %2, align 4
  %9 = load i32, i32* %1, align 4
  %10 = icmp slt i32 %8, %9
  br i1 %10, label %11, label %143

11:                                               ; preds = %7
  %12 = load i32, i32* %2, align 4
  %13 = sext i32 %12 to i64
  %14 = getelementptr inbounds [100 x %struct.anon], [100 x %struct.anon]* %5, i64 0, i64 %13
  %15 = getelementptr inbounds %struct.anon, %struct.anon* %14, i32 0, i32 0
  %16 = getelementptr inbounds [50 x i8], [50 x i8]* %15, i64 0, i64 0
  %17 = call i32 (i8*, ...) @__isoc99_scanf(i8* getelementptr inbounds ([3 x i8], [3 x i8]* @.str.1, i64 0, i64 0), i8* %16)
  %18 = load i32, i32* %2, align 4
  %19 = sext i32 %18 to i64
  %20 = getelementptr inbounds [100 x %struct.anon], [100 x %struct.anon]* %5, i64 0, i64 %19
  %21 = getelementptr inbounds %struct.anon, %struct.anon* %20, i32 0, i32 0
  %22 = getelementptr inbounds [50 x i8], [50 x i8]* %21, i64 0, i64 0
  %23 = call i64 @strlen(i8* %22) #3
  %24 = trunc i64 %23 to i32
  %25 = load i32, i32* %2, align 4
  %26 = sext i32 %25 to i64
  %27 = getelementptr inbounds [100 x %struct.anon], [100 x %struct.anon]* %5, i64 0, i64 %26
  %28 = getelementptr inbounds %struct.anon, %struct.anon* %27, i32 0, i32 2
  store i32 %24, i32* %28, align 4
  %29 = load i32, i32* %2, align 4
  %30 = sext i32 %29 to i64
  %31 = getelementptr inbounds [100 x %struct.anon], [100 x %struct.anon]* %5, i64 0, i64 %30
  %32 = getelementptr inbounds %struct.anon, %struct.anon* %31, i32 0, i32 0
  %33 = load i32, i32* %2, align 4
  %34 = sext i32 %33 to i64
  %35 = getelementptr inbounds [100 x %struct.anon], [100 x %struct.anon]* %5, i64 0, i64 %34
  %36 = getelementptr inbounds %struct.anon, %struct.anon* %35, i32 0, i32 2
  %37 = load i32, i32* %36, align 4
  %38 = sub nsw i32 %37, 1
  %39 = sext i32 %38 to i64
  %40 = getelementptr inbounds [50 x i8], [50 x i8]* %32, i64 0, i64 %39
  %41 = load i8, i8* %40, align 1
  %42 = sext i8 %41 to i32
  %43 = icmp eq i32 %42, 114
  br i1 %43, label %60, label %44

44:                                               ; preds = %11
  %45 = load i32, i32* %2, align 4
  %46 = sext i32 %45 to i64
  %47 = getelementptr inbounds [100 x %struct.anon], [100 x %struct.anon]* %5, i64 0, i64 %46
  %48 = getelementptr inbounds %struct.anon, %struct.anon* %47, i32 0, i32 0
  %49 = load i32, i32* %2, align 4
  %50 = sext i32 %49 to i64
  %51 = getelementptr inbounds [100 x %struct.anon], [100 x %struct.anon]* %5, i64 0, i64 %50
  %52 = getelementptr inbounds %struct.anon, %struct.anon* %51, i32 0, i32 2
  %53 = load i32, i32* %52, align 4
  %54 = sub nsw i32 %53, 1
  %55 = sext i32 %54 to i64
  %56 = getelementptr inbounds [50 x i8], [50 x i8]* %48, i64 0, i64 %55
  %57 = load i8, i8* %56, align 1
  %58 = sext i8 %57 to i32
  %59 = icmp eq i32 %58, 121
  br i1 %59, label %60, label %85

60:                                               ; preds = %44, %11
  %61 = load i32, i32* %2, align 4
  %62 = sext i32 %61 to i64
  %63 = getelementptr inbounds [100 x %struct.anon], [100 x %struct.anon]* %5, i64 0, i64 %62
  %64 = getelementptr inbounds %struct.anon, %struct.anon* %63, i32 0, i32 0
  %65 = load i32, i32* %2, align 4
  %66 = sext i32 %65 to i64
  %67 = getelementptr inbounds [100 x %struct.anon], [100 x %struct.anon]* %5, i64 0, i64 %66
  %68 = getelementptr inbounds %struct.anon, %struct.anon* %67, i32 0, i32 2
  %69 = load i32, i32* %68, align 4
  %70 = sub nsw i32 %69, 1
  %71 = sext i32 %70 to i64
  %72 = getelementptr inbounds [50 x i8], [50 x i8]* %64, i64 0, i64 %71
  store i8 0, i8* %72, align 1
  %73 = load i32, i32* %2, align 4
  %74 = sext i32 %73 to i64
  %75 = getelementptr inbounds [100 x %struct.anon], [100 x %struct.anon]* %5, i64 0, i64 %74
  %76 = getelementptr inbounds %struct.anon, %struct.anon* %75, i32 0, i32 0
  %77 = load i32, i32* %2, align 4
  %78 = sext i32 %77 to i64
  %79 = getelementptr inbounds [100 x %struct.anon], [100 x %struct.anon]* %5, i64 0, i64 %78
  %80 = getelementptr inbounds %struct.anon, %struct.anon* %79, i32 0, i32 2
  %81 = load i32, i32* %80, align 4
  %82 = sub nsw i32 %81, 2
  %83 = sext i32 %82 to i64
  %84 = getelementptr inbounds [50 x i8], [50 x i8]* %76, i64 0, i64 %83
  store i8 0, i8* %84, align 1
  br label %139

85:                                               ; preds = %44
  %86 = load i32, i32* %2, align 4
  %87 = sext i32 %86 to i64
  %88 = getelementptr inbounds [100 x %struct.anon], [100 x %struct.anon]* %5, i64 0, i64 %87
  %89 = getelementptr inbounds %struct.anon, %struct.anon* %88, i32 0, i32 0
  %90 = load i32, i32* %2, align 4
  %91 = sext i32 %90 to i64
  %92 = getelementptr inbounds [100 x %struct.anon], [100 x %struct.anon]* %5, i64 0, i64 %91
  %93 = getelementptr inbounds %struct.anon, %struct.anon* %92, i32 0, i32 2
  %94 = load i32, i32* %93, align 4
  %95 = sub nsw i32 %94, 1
  %96 = sext i32 %95 to i64
  %97 = getelementptr inbounds [50 x i8], [50 x i8]* %89, i64 0, i64 %96
  %98 = load i8, i8* %97, align 1
  %99 = sext i8 %98 to i32
  %100 = icmp eq i32 %99, 103
  br i1 %100, label %101, label %138

101:                                              ; preds = %85
  %102 = load i32, i32* %2, align 4
  %103 = sext i32 %102 to i64
  %104 = getelementptr inbounds [100 x %struct.anon], [100 x %struct.anon]* %5, i64 0, i64 %103
  %105 = getelementptr inbounds %struct.anon, %struct.anon* %104, i32 0, i32 0
  %106 = load i32, i32* %2, align 4
  %107 = sext i32 %106 to i64
  %108 = getelementptr inbounds [100 x %struct.anon], [100 x %struct.anon]* %5, i64 0, i64 %107
  %109 = getelementptr inbounds %struct.anon, %struct.anon* %108, i32 0, i32 2
  %110 = load i32, i32* %109, align 4
  %111 = sub nsw i32 %110, 1
  %112 = sext i32 %111 to i64
  %113 = getelementptr inbounds [50 x i8], [50 x i8]* %105, i64 0, i64 %112
  store i8 0, i8* %113, align 1
  %114 = load i32, i32* %2, align 4
  %115 = sext i32 %114 to i64
  %116 = getelementptr inbounds [100 x %struct.anon], [100 x %struct.anon]* %5, i64 0, i64 %115
  %117 = getelementptr inbounds %struct.anon, %struct.anon* %116, i32 0, i32 0
  %118 = load i32, i32* %2, align 4
  %119 = sext i32 %118 to i64
  %120 = getelementptr inbounds [100 x %struct.anon], [100 x %struct.anon]* %5, i64 0, i64 %119
  %121 = getelementptr inbounds %struct.anon, %struct.anon* %120, i32 0, i32 2
  %122 = load i32, i32* %121, align 4
  %123 = sub nsw i32 %122, 2
  %124 = sext i32 %123 to i64
  %125 = getelementptr inbounds [50 x i8], [50 x i8]* %117, i64 0, i64 %124
  store i8 0, i8* %125, align 1
  %126 = load i32, i32* %2, align 4
  %127 = sext i32 %126 to i64
  %128 = getelementptr inbounds [100 x %struct.anon], [100 x %struct.anon]* %5, i64 0, i64 %127
  %129 = getelementptr inbounds %struct.anon, %struct.anon* %128, i32 0, i32 0
  %130 = load i32, i32* %2, align 4
  %131 = sext i32 %130 to i64
  %132 = getelementptr inbounds [100 x %struct.anon], [100 x %struct.anon]* %5, i64 0, i64 %131
  %133 = getelementptr inbounds %struct.anon, %struct.anon* %132, i32 0, i32 2
  %134 = load i32, i32* %133, align 4
  %135 = sub nsw i32 %134, 3
  %136 = sext i32 %135 to i64
  %137 = getelementptr inbounds [50 x i8], [50 x i8]* %129, i64 0, i64 %136
  store i8 0, i8* %137, align 1
  br label %138

138:                                              ; preds = %101, %85
  br label %139

139:                                              ; preds = %138, %60
  br label %140

140:                                              ; preds = %139
  %141 = load i32, i32* %2, align 4
  %142 = add nsw i32 %141, 1
  store i32 %142, i32* %2, align 4
  br label %7

143:                                              ; preds = %7
  store i32 0, i32* %2, align 4
  br label %144

144:                                              ; preds = %155, %143
  %145 = load i32, i32* %2, align 4
  %146 = load i32, i32* %1, align 4
  %147 = icmp slt i32 %145, %146
  br i1 %147, label %148, label %158

148:                                              ; preds = %144
  %149 = load i32, i32* %2, align 4
  %150 = sext i32 %149 to i64
  %151 = getelementptr inbounds [100 x %struct.anon], [100 x %struct.anon]* %5, i64 0, i64 %150
  %152 = getelementptr inbounds %struct.anon, %struct.anon* %151, i32 0, i32 0
  %153 = getelementptr inbounds [50 x i8], [50 x i8]* %152, i64 0, i64 0
  %154 = call i32 (i8*, ...) @printf(i8* getelementptr inbounds ([4 x i8], [4 x i8]* @.str.2, i64 0, i64 0), i8* %153)
  br label %155

155:                                              ; preds = %148
  %156 = load i32, i32* %2, align 4
  %157 = add nsw i32 %156, 1
  store i32 %157, i32* %2, align 4
  br label %144

158:                                              ; preds = %144
  ret void
}

declare dso_local i32 @__isoc99_scanf(i8*, ...) #1

; Function Attrs: nounwind readonly
declare dso_local i64 @strlen(i8*) #2

declare dso_local i32 @printf(i8*, ...) #1


!llvm.module.flags = !{!0}
!llvm.ident = !{!1}

!0 = !{i32 1, !"wchar_size", i32 4}
!1 = !{!"clang version 10.0.0-4ubuntu1 "}
